; Function Attrs: mustprogress uwtable
define noundef i64 @_ZNK7httplib7Request21get_param_value_countERKNSt7__cxx1112basic_stringIcSt11char_traitsIcESaIcEEE(ptr noundef nonnull align 8 dereferenceable(664) %this, ptr noundef nonnull align 8 dereferenceable(32) %key) local_unnamed_addr #5 align 2 {
entry:
  %params = getelementptr inbounds i8, ptr %this, i64 288
  %call.i = tail call { ptr, ptr } @_ZNKSt8_Rb_treeINSt7__cxx1112basic_stringIcSt11char_traitsIcESaIcEEESt4pairIKS5_S5_ESt10_Select1stIS8_ESt4lessIS5_ESaIS8_EE11equal_rangeERS7_(ptr noundef nonnull align 8 dereferenceable(48) %params, ptr noundef nonnull align 8 dereferenceable(32) %key)
  %0 = extractvalue { ptr, ptr } %call.i, 0
  %1 = extractvalue { ptr, ptr } %call.i, 1
  %cmp.i.not3.i.i = icmp eq ptr %0, %1
  br i1 %cmp.i.not3.i.i, label %_ZSt8distanceISt23_Rb_tree_const_iteratorISt4pairIKNSt7__cxx1112basic_stringIcSt11char_traitsIcESaIcEEES7_EEENSt15iterator_traitsIT_E15difference_typeESC_SC_.exit, label %while.body.i.i

while.body.i.i:                                   ; preds = %entry, %while.body.i.i
  %__n.05.i.i = phi i64 [ %inc.i.i, %while.body.i.i ], [ 0, %entry ]
  %__first.sroa.0.04.i.i = phi ptr [ %call.i.i.i, %while.body.i.i ], [ %0, %entry ]
  %call.i.i.i = tail call noundef ptr @_ZSt18_Rb_tree_incrementPKSt18_Rb_tree_node_base(ptr noundef %__first.sroa.0.04.i.i) #38
  %inc.i.i = add nuw nsw i64 %__n.05.i.i, 1
  %cmp.i.not.i.i = icmp eq ptr %call.i.i.i, %1
  br i1 %cmp.i.not.i.i, label %_ZSt8distanceISt23_Rb_tree_const_iteratorISt4pairIKNSt7__cxx1112basic_stringIcSt11char_traitsIcESaIcEEES7_EEENSt15iterator_traitsIT_E15difference_typeESC_SC_.exit, label %while.body.i.i, !llvm.loop !97

_ZSt8distanceISt23_Rb_tree_const_iteratorISt4pairIKNSt7__cxx1112basic_stringIcSt11char_traitsIcESaIcEEES7_EEENSt15iterator_traitsIT_E15difference_typeESC_SC_.exit: ; preds = %while.body.i.i, %entry
  %__n.0.lcssa.i.i = phi i64 [ 0, %entry ], [ %inc.i.i, %while.body.i.i ]
  ret i64 %__n.0.lcssa.i.i
}